Certificate:
    Data:
        Version: 3 (0x2)
        Serial Number: 1 (0x1)
    Signature Algorithm: sha256WithRSAEncryption
        Issuer: C=DE, ST=US, L=US, O=FG Organization, OU=Univention Corporate Server, CN=Univention Corporate Server Root CA (ID=F1F69PZp)/emailAddress=ssl@fg-organization.intranet
        Validity
            Not Before: Nov 26 08:23:17 2020 GMT
            Not After : Nov 25 08:23:17 2025 GMT
        Subject: C=DE, ST=US, L=US, O=FG Organization, OU=Univention Corporate Server, CN=ucs-6045.fg-organization.intranet/emailAddress=ssl@fg-organization.intranet
        Subject Public Key Info:
            Public Key Algorithm: rsaEncryption
                Public-Key: (2048 bit)
                Modulus:
                    00:bc:4d:b3:f4:83:02:78:f1:07:8c:c9:85:ab:f9:
                    17:02:51:46:68:02:60:ba:c8:49:31:66:07:ed:97:
                    af:8b:09:2e:9c:8d:92:91:af:74:b1:f4:8a:80:ab:
                    3d:74:f9:d4:c7:f5:02:1c:ae:51:72:60:e4:88:da:
                    b9:02:76:93:56:bc:b3:5b:32:32:0c:c5:d7:d0:42:
                    ae:18:00:09:48:f0:d0:09:51:3b:a7:43:f8:5f:33:
                    f7:c0:21:24:ae:12:24:a9:f2:c1:cd:53:82:9c:93:
                    72:35:b7:7b:33:e2:2a:a5:bd:e6:df:0e:33:67:72:
                    fc:56:2d:1a:08:2d:58:ad:6e:69:94:f0:25:71:2d:
                    e3:82:ee:cf:c5:fe:f9:ed:a5:da:0d:f6:82:0d:b2:
                    59:27:d8:e0:3e:2b:53:bc:37:72:3c:50:c4:41:ac:
                    dc:92:d4:ff:41:a0:03:d3:4c:47:21:19:3e:3c:ad:
                    c7:d8:bf:ce:25:76:30:d7:53:e3:54:8e:ec:7a:17:
                    5b:e2:a3:a9:9f:37:47:17:89:a7:44:3c:28:13:84:
                    1b:95:8e:14:7d:9c:d1:49:47:2f:ff:e1:c6:bd:33:
                    22:64:18:2a:4c:e6:dd:d8:77:50:cc:49:99:99:d4:
                    e8:21:61:5e:b9:24:83:a0:b1:f8:85:56:8e:30:cd:
                    1c:dd
                Exponent: 65537 (0x10001)
        X509v3 extensions:
            X509v3 Basic Constraints:
                CA:FALSE
            X509v3 Subject Key Identifier:
                CC:D4:B4:16:3C:7D:73:F6:A6:BA:1C:61:42:D7:7B:76:06:44:A4:00
            X509v3 Authority Key Identifier:
                keyid:9F:A6:FC:3F:37:C9:42:8F:CF:FA:64:BD:30:1E:D9:5B:60:6A:8A:F7
                DirName:/C=DE/ST=US/L=US/O=FG Organization/OU=Univention Corporate Server/CN=Univention Corporate Server Root CA (ID=F1F69PZp)/emailAddress=ssl@fg-organization.intranet
                serial:FB:3E:5B:9C:FD:FA:72:C0

            X509v3 Key Usage:
                Digital Signature, Non Repudiation, Key Encipherment
            X509v3 Subject Alternative Name:
                DNS:ucs-6045.fg-organization.intranet, DNS:ucs-6045
    Signature Algorithm: sha256WithRSAEncryption
         92:cf:ad:e7:26:1a:09:7e:f8:72:03:62:f2:8a:68:3f:fb:9b:
         7f:c8:0c:93:c9:8a:8d:fe:d3:d4:4c:78:3e:d7:69:f7:02:5b:
         f7:cb:c3:9d:7f:7e:91:26:f3:9a:69:9c:c5:33:52:94:45:c6:
         30:93:bd:f9:16:da:77:b0:af:b4:1b:d7:28:e9:b4:5c:fb:14:
         67:91:e8:9c:2a:21:64:0c:a1:1b:f2:ed:9e:03:a6:2d:88:b7:
         65:6b:23:76:3b:55:51:73:41:2a:91:5f:ae:d6:86:d0:47:8e:
         ec:52:d7:b9:04:4b:3c:99:0c:d9:2d:3e:21:b9:e9:e0:ec:16:
         38:c0:29:56:c8:35:58:13:c8:e6:a7:c2:51:a0:37:df:54:47:
         cc:c1:8f:a0:17:b3:80:04:e0:32:bd:1b:b9:9d:f7:71:76:3f:
         8d:54:a8:32:0c:c7:23:d3:4d:1e:33:1e:af:26:ec:1a:72:77:
         e6:f5:64:c9:9c:df:4d:bb:18:8d:4f:26:d1:85:43:77:df:ec:
         aa:04:c0:54:d5:38:b0:ea:b0:90:4d:e0:de:bd:19:70:d3:92:
         33:83:d2:0f:af:b8:64:7b:81:7c:31:66:a8:72:6a:41:54:65:
         c2:96:7f:c4:43:06:fe:52:f9:af:45:6a:1f:a7:33:a0:c0:43:
         86:11:99:c9
-----BEGIN CERTIFICATE-----
MIIFizCCBHOgAwIBAgIBATANBgkqhkiG9w0BAQsFADCB0DELMAkGA1UEBhMCREUx
CzAJBgNVBAgTAlVTMQswCQYDVQQHEwJVUzEYMBYGA1UEChMPRkcgT3JnYW5pemF0
aW9uMSQwIgYDVQQLExtVbml2ZW50aW9uIENvcnBvcmF0ZSBTZXJ2ZXIxOjA4BgNV
BAMTMVVuaXZlbnRpb24gQ29ycG9yYXRlIFNlcnZlciBSb290IENBIChJRD1GMUY2
OVBacCkxKzApBgkqhkiG9w0BCQEWHHNzbEBmZy1vcmdhbml6YXRpb24uaW50cmFu
ZXQwHhcNMjAxMTI2MDgyMzE3WhcNMjUxMTI1MDgyMzE3WjCBwDELMAkGA1UEBhMC
REUxCzAJBgNVBAgTAlVTMQswCQYDVQQHEwJVUzEYMBYGA1UEChMPRkcgT3JnYW5p
emF0aW9uMSQwIgYDVQQLExtVbml2ZW50aW9uIENvcnBvcmF0ZSBTZXJ2ZXIxKjAo
BgNVBAMTIXVjcy02MDQ1LmZnLW9yZ2FuaXphdGlvbi5pbnRyYW5ldDErMCkGCSqG
SIb3DQEJARYcc3NsQGZnLW9yZ2FuaXphdGlvbi5pbnRyYW5ldDCCASIwDQYJKoZI
hvcNAQEBBQADggEPADCCAQoCggEBALxNs/SDAnjxB4zJhav5FwJRRmgCYLrISTFm
B+2Xr4sJLpyNkpGvdLH0ioCrPXT51Mf1AhyuUXJg5IjauQJ2k1a8s1syMgzF19BC
rhgACUjw0AlRO6dD+F8z98AhJK4SJKnywc1TgpyTcjW3ezPiKqW95t8OM2dy/FYt
GggtWK1uaZTwJXEt44Luz8X++e2l2g32gg2yWSfY4D4rU7w3cjxQxEGs3JLU/0Gg
A9NMRyEZPjytx9i/ziV2MNdT41SO7HoXW+KjqZ83RxeJp0Q8KBOEG5WOFH2c0UlH
L//hxr0zImQYKkzm3dh3UMxJmZnU6CFhXrkkg6Cx+IVWjjDNHN0CAwEAAaOCAXww
ggF4MAkGA1UdEwQCMAAwHQYDVR0OBBYEFMzUtBY8fXP2procYULXe3YGRKQAMIIB
BQYDVR0jBIH9MIH6gBSfpvw/N8lCj8/6ZL0wHtlbYGqK96GB1qSB0zCB0DELMAkG
A1UEBhMCREUxCzAJBgNVBAgTAlVTMQswCQYDVQQHEwJVUzEYMBYGA1UEChMPRkcg
T3JnYW5pemF0aW9uMSQwIgYDVQQLExtVbml2ZW50aW9uIENvcnBvcmF0ZSBTZXJ2
ZXIxOjA4BgNVBAMTMVVuaXZlbnRpb24gQ29ycG9yYXRlIFNlcnZlciBSb290IENB
IChJRD1GMUY2OVBacCkxKzApBgkqhkiG9w0BCQEWHHNzbEBmZy1vcmdhbml6YXRp
b24uaW50cmFuZXSCCQD7Pluc/fpywDALBgNVHQ8EBAMCBeAwNgYDVR0RBC8wLYIh
dWNzLTYwNDUuZmctb3JnYW5pemF0aW9uLmludHJhbmV0ggh1Y3MtNjA0NTANBgkq
hkiG9w0BAQsFAAOCAQEAks+t5yYaCX74cgNi8opoP/ubf8gMk8mKjf7T1Ex4Ptdp
9wJb98vDnX9+kSbzmmmcxTNSlEXGMJO9+Rbad7CvtBvXKOm0XPsUZ5HonCohZAyh
G/LtngOmLYi3ZWsjdjtVUXNBKpFfrtaG0EeO7FLXuQRLPJkM2S0+Ibnp4OwWOMAp
Vsg1WBPI5qfCUaA331RHzMGPoBezgATgMr0buZ33cXY/jVSoMgzHI9NNHjMerybs
GnJ35vVkyZzfTbsYjU8m0YVDd9/sqgTAVNU4sOqwkE3g3r0ZcNOSM4PSD6+4ZHuB
fDFmqHJqQVRlwpZ/xEMG/lL5r0VqH6czoMBDhhGZyQ==
-----END CERTIFICATE-----
